; Function Attrs: mustprogress uwtable
define dso_local void @_ZN5vcpkg18make_build_env_cmdERKNS_12PreBuildInfoERKNS_7ToolsetE(ptr dead_on_unwind noalias writable sret(%"struct.vcpkg::Command") align 8 %0, ptr noundef nonnull align 8 dereferenceable(416) %1, ptr nocapture noundef nonnull readnone align 8 dereferenceable(160) %2) local_unnamed_addr #2 {
  %4 = alloca %"struct.vcpkg::LineInfo", align 8
  %5 = getelementptr inbounds i8, ptr %1, i64 232
  %6 = load i8, ptr %5, align 8
  %7 = and i8 %6, 1
  %.not1.i = icmp eq i8 %7, 0
  br i1 %.not1.i, label %12, label %8

8:                                                ; preds = %3
  %9 = getelementptr inbounds i8, ptr %1, i64 8
  %10 = load i8, ptr %9, align 8
  %11 = and i8 %10, 1
  %.not.i = icmp eq i8 %11, 0
  br i1 %.not.i, label %_ZNK5vcpkg12PreBuildInfo12using_vcvarsEv.exit.thread1, label %12

12:                                               ; preds = %8, %3
  %13 = getelementptr inbounds i8, ptr %1, i64 48
  %14 = tail call noundef zeroext i1 @_ZNKSt7__cxx1112basic_stringIcSt11char_traitsIcESaIcEE5emptyEv(ptr noundef nonnull align 8 dereferenceable(32) %13) #25
  br i1 %14, label %_ZNK5vcpkg12PreBuildInfo12using_vcvarsEv.exit.thread, label %_ZNK5vcpkg12PreBuildInfo12using_vcvarsEv.exit

_ZNK5vcpkg12PreBuildInfo12using_vcvarsEv.exit:    ; preds = %12
  %15 = tail call noundef i32 @_ZNKSt7__cxx1112basic_stringIcSt11char_traitsIcESaIcEE7compareEPKc(ptr noundef nonnull align 8 dereferenceable(32) %13, ptr noundef nonnull @.str.7) #25
  %16 = icmp eq i32 %15, 0
  br i1 %16, label %_ZNK5vcpkg12PreBuildInfo12using_vcvarsEv.exit.thread, label %_ZNK5vcpkg12PreBuildInfo12using_vcvarsEv.exit.thread1

_ZNK5vcpkg12PreBuildInfo12using_vcvarsEv.exit.thread1: ; preds = %8, %_ZNK5vcpkg12PreBuildInfo12using_vcvarsEv.exit
  tail call void @llvm.memset.p0.i64(ptr noundef nonnull align 8 dereferenceable(32) %0, i8 0, i64 32, i1 false)
  tail call void @_ZNSt7__cxx1112basic_stringIcSt11char_traitsIcESaIcEEC1Ev(ptr noundef nonnull align 8 dereferenceable(32) %0) #25
  ret void

_ZNK5vcpkg12PreBuildInfo12using_vcvarsEv.exit.thread: ; preds = %12, %_ZNK5vcpkg12PreBuildInfo12using_vcvarsEv.exit
  store i32 545, ptr %4, align 8
  %17 = getelementptr inbounds i8, ptr %4, i64 8
  store ptr @.str, ptr %17, align 8
  call void @_ZN5vcpkg6Checks11unreachableERKNS_8LineInfoE(ptr noundef nonnull align 8 dereferenceable(16) %4) #24
  unreachable
}